; Function Attrs: mustprogress nounwind uwtable
define hidden noundef i64 @_ZN18JfrJavaEventWriter6commitEl(i64 noundef %0) local_unnamed_addr #0 align 2 {
  %2 = tail call align 8 ptr @llvm.threadlocal.address.p0(ptr align 8 @_ZN6Thread12_thr_currentE)
  %3 = load ptr, ptr %2, align 8
  %4 = getelementptr inbounds i8, ptr %3, i64 584
  %5 = getelementptr inbounds i8, ptr %3, i64 592
  %6 = load ptr, ptr %5, align 8
  %.not.i = icmp eq ptr %6, null
  br i1 %.not.i, label %7, label %_ZNK14JfrThreadLocal11java_bufferEv.exit

7:                                                ; preds = %1
  %8 = tail call noundef ptr @_ZNK14JfrThreadLocal19install_java_bufferEv(ptr noundef nonnull align 8 dereferenceable(195) %4) #10
  br label %_ZNK14JfrThreadLocal11java_bufferEv.exit

_ZNK14JfrThreadLocal11java_bufferEv.exit:         ; preds = %1, %7
  %9 = phi ptr [ %8, %7 ], [ %6, %1 ]
  %10 = getelementptr inbounds i8, ptr %3, i64 777
  %11 = load i8, ptr %10, align 1
  %12 = trunc i8 %11 to i1
  %13 = getelementptr inbounds i8, ptr %9, i64 16
  br i1 %12, label %14, label %17

14:                                               ; preds = %_ZNK14JfrThreadLocal11java_bufferEv.exit
  store i8 0, ptr %10, align 1
  %15 = load ptr, ptr %13, align 8
  %16 = ptrtoint ptr %15 to i64
  br label %22

17:                                               ; preds = %_ZNK14JfrThreadLocal11java_bufferEv.exit
  %18 = inttoptr i64 %0 to ptr
  tail call void asm sideeffect "", "~{memory},~{dirflag},~{fpsr},~{flags}"() #10, !srcloc !6
  store volatile ptr %18, ptr %13, align 8
  %19 = tail call noundef zeroext i1 @_ZNK9JfrBuffer5leaseEv(ptr noundef nonnull align 8 dereferenceable(48) %9) #10
  br i1 %19, label %20, label %22

20:                                               ; preds = %17
  %21 = load ptr, ptr %4, align 8
  tail call void @_ZN18JfrJavaEventWriter5flushEP8_jobjectiiP10JavaThread(ptr noundef %21, i32 noundef 0, i32 noundef 0, ptr noundef nonnull %3)
  br label %22

22:                                               ; preds = %17, %20, %14
  %.0 = phi i64 [ %16, %14 ], [ 0, %20 ], [ %0, %17 ]
  ret i64 %.0
}